target datalayout = "e-m:e-p270:32:32-p271:32:32-p272:64:64-i64:64-i128:128-f80:128-n8:16:32:64-S128"
target triple = "x86_64-pc-linux-gnu"

%struct.JNINativeInterface_ = type { ptr, ptr, ptr, ptr, ptr, ptr, ptr, ptr, ptr, ptr, ptr, ptr, ptr, ptr, ptr, ptr, ptr, ptr, ptr, ptr, ptr, ptr, ptr, ptr, ptr, ptr, ptr, ptr, ptr, ptr, ptr, ptr, ptr, ptr, ptr, ptr, ptr, ptr, ptr, ptr, ptr, ptr, ptr, ptr, ptr, ptr, ptr, ptr, ptr, ptr, ptr, ptr, ptr, ptr, ptr, ptr, ptr, ptr, ptr, ptr, ptr, ptr, ptr, ptr, ptr, ptr, ptr, ptr, ptr, ptr, ptr, ptr, ptr, ptr, ptr, ptr, ptr, ptr, ptr, ptr, ptr, ptr, ptr, ptr, ptr, ptr, ptr, ptr, ptr, ptr, ptr, ptr, ptr, ptr, ptr, ptr, ptr, ptr, ptr, ptr, ptr, ptr, ptr, ptr, ptr, ptr, ptr, ptr, ptr, ptr, ptr, ptr, ptr, ptr, ptr, ptr, ptr, ptr, ptr, ptr, ptr, ptr, ptr, ptr, ptr, ptr, ptr, ptr, ptr, ptr, ptr, ptr, ptr, ptr, ptr, ptr, ptr, ptr, ptr, ptr, ptr, ptr, ptr, ptr, ptr, ptr, ptr, ptr, ptr, ptr, ptr, ptr, ptr, ptr, ptr, ptr, ptr, ptr, ptr, ptr, ptr, ptr, ptr, ptr, ptr, ptr, ptr, ptr, ptr, ptr, ptr, ptr, ptr, ptr, ptr, ptr, ptr, ptr, ptr, ptr, ptr, ptr, ptr, ptr, ptr, ptr, ptr, ptr, ptr, ptr, ptr, ptr, ptr, ptr, ptr, ptr, ptr, ptr, ptr, ptr, ptr, ptr, ptr, ptr, ptr, ptr, ptr, ptr, ptr, ptr, ptr, ptr, ptr, ptr, ptr, ptr, ptr, ptr, ptr, ptr, ptr, ptr, ptr, ptr, ptr, ptr, ptr, ptr, ptr, ptr, ptr, ptr, ptr, ptr, ptr }
%struct.CK_SSL3_RANDOM_DATA = type { ptr, i64, ptr, i64 }

@.str.20 = private unnamed_addr constant [11 x i8] c"RandomInfo\00", align 1
@.str.21 = private unnamed_addr constant [50 x i8] c"Lsun/security/pkcs11/wrapper/CK_SSL3_RANDOM_DATA;\00", align 1
@.str.22 = private unnamed_addr constant [48 x i8] c"sun/security/pkcs11/wrapper/CK_SSL3_RANDOM_DATA\00", align 1
@.str.23 = private unnamed_addr constant [14 x i8] c"pClientRandom\00", align 1
@.str.24 = private unnamed_addr constant [3 x i8] c"[B\00", align 1
@.str.25 = private unnamed_addr constant [14 x i8] c"pServerRandom\00", align 1
@.str.26 = private unnamed_addr constant [9 x i8] c"pVersion\00", align 1
@.str.27 = private unnamed_addr constant [41 x i8] c"Lsun/security/pkcs11/wrapper/CK_VERSION;\00", align 1

; Function Attrs: nounwind uwtable
define hidden void @masterKeyDeriveParamToCKMasterKeyDeriveParam(ptr noundef %0, ptr noundef %1, ptr noundef %2, ptr noundef %3, ptr noundef %4) #0 {
  %6 = alloca ptr, align 8
  %7 = alloca ptr, align 8
  %8 = alloca ptr, align 8
  %9 = alloca ptr, align 8
  %10 = alloca ptr, align 8
  %11 = alloca ptr, align 8
  %12 = alloca ptr, align 8
  %13 = alloca ptr, align 8
  %14 = alloca ptr, align 8
  %15 = alloca ptr, align 8
  %16 = alloca ptr, align 8
  store ptr %0, ptr %6, align 8
  store ptr %1, ptr %7, align 8
  store ptr %2, ptr %8, align 8
  store ptr %3, ptr %9, align 8
  store ptr %4, ptr %10, align 8
  %17 = load ptr, ptr %6, align 8
  %18 = load ptr, ptr %17, align 8
  %19 = getelementptr inbounds %struct.JNINativeInterface_, ptr %18, i32 0, i32 94
  %20 = load ptr, ptr %19, align 8
  %21 = load ptr, ptr %6, align 8
  %22 = load ptr, ptr %8, align 8
  %23 = call ptr %20(ptr noundef %21, ptr noundef %22, ptr noundef @.str.20, ptr noundef @.str.21)
  store ptr %23, ptr %11, align 8
  %24 = load ptr, ptr %11, align 8
  %25 = icmp eq ptr %24, null
  br i1 %25, label %26, label %27

26:                                               ; preds = %5
  br label %164

27:                                               ; preds = %5
  %28 = load ptr, ptr %6, align 8
  %29 = load ptr, ptr %28, align 8
  %30 = getelementptr inbounds %struct.JNINativeInterface_, ptr %29, i32 0, i32 95
  %31 = load ptr, ptr %30, align 8
  %32 = load ptr, ptr %6, align 8
  %33 = load ptr, ptr %7, align 8
  %34 = load ptr, ptr %11, align 8
  %35 = call ptr %31(ptr noundef %32, ptr noundef %33, ptr noundef %34)
  store ptr %35, ptr %13, align 8
  %36 = load ptr, ptr %6, align 8
  %37 = load ptr, ptr %36, align 8
  %38 = getelementptr inbounds %struct.JNINativeInterface_, ptr %37, i32 0, i32 6
  %39 = load ptr, ptr %38, align 8
  %40 = load ptr, ptr %6, align 8
  %41 = call ptr %39(ptr noundef %40, ptr noundef @.str.22)
  store ptr %41, ptr %12, align 8
  %42 = load ptr, ptr %12, align 8
  %43 = icmp eq ptr %42, null
  br i1 %43, label %44, label %45

44:                                               ; preds = %27
  br label %164

45:                                               ; preds = %27
  %46 = load ptr, ptr %6, align 8
  %47 = load ptr, ptr %46, align 8
  %48 = getelementptr inbounds %struct.JNINativeInterface_, ptr %47, i32 0, i32 94
  %49 = load ptr, ptr %48, align 8
  %50 = load ptr, ptr %6, align 8
  %51 = load ptr, ptr %12, align 8
  %52 = call ptr %49(ptr noundef %50, ptr noundef %51, ptr noundef @.str.23, ptr noundef @.str.24)
  store ptr %52, ptr %11, align 8
  %53 = load ptr, ptr %11, align 8
  %54 = icmp eq ptr %53, null
  br i1 %54, label %55, label %56

55:                                               ; preds = %45
  br label %164

56:                                               ; preds = %45
  %57 = load ptr, ptr %6, align 8
  %58 = load ptr, ptr %57, align 8
  %59 = getelementptr inbounds %struct.JNINativeInterface_, ptr %58, i32 0, i32 95
  %60 = load ptr, ptr %59, align 8
  %61 = load ptr, ptr %6, align 8
  %62 = load ptr, ptr %13, align 8
  %63 = load ptr, ptr %11, align 8
  %64 = call ptr %60(ptr noundef %61, ptr noundef %62, ptr noundef %63)
  store ptr %64, ptr %14, align 8
  %65 = load ptr, ptr %6, align 8
  %66 = load ptr, ptr %65, align 8
  %67 = getelementptr inbounds %struct.JNINativeInterface_, ptr %66, i32 0, i32 94
  %68 = load ptr, ptr %67, align 8
  %69 = load ptr, ptr %6, align 8
  %70 = load ptr, ptr %12, align 8
  %71 = call ptr %68(ptr noundef %69, ptr noundef %70, ptr noundef @.str.25, ptr noundef @.str.24)
  store ptr %71, ptr %11, align 8
  %72 = load ptr, ptr %11, align 8
  %73 = icmp eq ptr %72, null
  br i1 %73, label %74, label %75

74:                                               ; preds = %56
  br label %164

75:                                               ; preds = %56
  %76 = load ptr, ptr %6, align 8
  %77 = load ptr, ptr %76, align 8
  %78 = getelementptr inbounds %struct.JNINativeInterface_, ptr %77, i32 0, i32 95
  %79 = load ptr, ptr %78, align 8
  %80 = load ptr, ptr %6, align 8
  %81 = load ptr, ptr %13, align 8
  %82 = load ptr, ptr %11, align 8
  %83 = call ptr %79(ptr noundef %80, ptr noundef %81, ptr noundef %82)
  store ptr %83, ptr %15, align 8
  %84 = load ptr, ptr %6, align 8
  %85 = load ptr, ptr %84, align 8
  %86 = getelementptr inbounds %struct.JNINativeInterface_, ptr %85, i32 0, i32 94
  %87 = load ptr, ptr %86, align 8
  %88 = load ptr, ptr %6, align 8
  %89 = load ptr, ptr %8, align 8
  %90 = call ptr %87(ptr noundef %88, ptr noundef %89, ptr noundef @.str.26, ptr noundef @.str.27)
  store ptr %90, ptr %11, align 8
  %91 = load ptr, ptr %11, align 8
  %92 = icmp eq ptr %91, null
  br i1 %92, label %93, label %94

93:                                               ; preds = %75
  br label %164

94:                                               ; preds = %75
  %95 = load ptr, ptr %6, align 8
  %96 = load ptr, ptr %95, align 8
  %97 = getelementptr inbounds %struct.JNINativeInterface_, ptr %96, i32 0, i32 95
  %98 = load ptr, ptr %97, align 8
  %99 = load ptr, ptr %6, align 8
  %100 = load ptr, ptr %7, align 8
  %101 = load ptr, ptr %11, align 8
  %102 = call ptr %98(ptr noundef %99, ptr noundef %100, ptr noundef %101)
  store ptr %102, ptr %16, align 8
  %103 = load ptr, ptr %6, align 8
  %104 = load ptr, ptr %16, align 8
  %105 = call ptr @jVersionToCKVersionPtr(ptr noundef %103, ptr noundef %104)
  %106 = load ptr, ptr %9, align 8
  store ptr %105, ptr %106, align 8
  %107 = load ptr, ptr %6, align 8
  %108 = load ptr, ptr %107, align 8
  %109 = getelementptr inbounds %struct.JNINativeInterface_, ptr %108, i32 0, i32 228
  %110 = load ptr, ptr %109, align 8
  %111 = load ptr, ptr %6, align 8
  %112 = call zeroext i8 %110(ptr noundef %111)
  %113 = icmp ne i8 %112, 0
  br i1 %113, label %114, label %115

114:                                              ; preds = %94
  br label %164

115:                                              ; preds = %94
  %116 = load ptr, ptr %6, align 8
  %117 = load ptr, ptr %14, align 8
  %118 = load ptr, ptr %10, align 8
  %119 = getelementptr inbounds %struct.CK_SSL3_RANDOM_DATA, ptr %118, i32 0, i32 0
  %120 = load ptr, ptr %10, align 8
  %121 = getelementptr inbounds %struct.CK_SSL3_RANDOM_DATA, ptr %120, i32 0, i32 1
  call void @jByteArrayToCKByteArray(ptr noundef %116, ptr noundef %117, ptr noundef %119, ptr noundef %121)
  %122 = load ptr, ptr %6, align 8
  %123 = load ptr, ptr %122, align 8
  %124 = getelementptr inbounds %struct.JNINativeInterface_, ptr %123, i32 0, i32 228
  %125 = load ptr, ptr %124, align 8
  %126 = load ptr, ptr %6, align 8
  %127 = call zeroext i8 %125(ptr noundef %126)
  %128 = icmp ne i8 %127, 0
  br i1 %128, label %129, label %130

129:                                              ; preds = %115
  br label %146

130:                                              ; preds = %115
  %131 = load ptr, ptr %6, align 8
  %132 = load ptr, ptr %15, align 8
  %133 = load ptr, ptr %10, align 8
  %134 = getelementptr inbounds %struct.CK_SSL3_RANDOM_DATA, ptr %133, i32 0, i32 2
  %135 = load ptr, ptr %10, align 8
  %136 = getelementptr inbounds %struct.CK_SSL3_RANDOM_DATA, ptr %135, i32 0, i32 3
  call void @jByteArrayToCKByteArray(ptr noundef %131, ptr noundef %132, ptr noundef %134, ptr noundef %136)
  %137 = load ptr, ptr %6, align 8
  %138 = load ptr, ptr %137, align 8
  %139 = getelementptr inbounds %struct.JNINativeInterface_, ptr %138, i32 0, i32 228
  %140 = load ptr, ptr %139, align 8
  %141 = load ptr, ptr %6, align 8
  %142 = call zeroext i8 %140(ptr noundef %141)
  %143 = icmp ne i8 %142, 0
  br i1 %143, label %144, label %145

144:                                              ; preds = %130
  br label %146

145:                                              ; preds = %130
  br label %164

146:                                              ; preds = %144, %129
  %147 = load ptr, ptr %9, align 8
  %148 = load ptr, ptr %147, align 8
  call void @free(ptr noundef %148) #7
  %149 = load ptr, ptr %10, align 8
  %150 = getelementptr inbounds %struct.CK_SSL3_RANDOM_DATA, ptr %149, i32 0, i32 0
  %151 = load ptr, ptr %150, align 8
  call void @free(ptr noundef %151) #7
  %152 = load ptr, ptr %10, align 8
  %153 = getelementptr inbounds %struct.CK_SSL3_RANDOM_DATA, ptr %152, i32 0, i32 1
  store i64 0, ptr %153, align 8
  %154 = load ptr, ptr %10, align 8
  %155 = getelementptr inbounds %struct.CK_SSL3_RANDOM_DATA, ptr %154, i32 0, i32 2
  %156 = load ptr, ptr %155, align 8
  call void @free(ptr noundef %156) #7
  %157 = load ptr, ptr %10, align 8
  %158 = getelementptr inbounds %struct.CK_SSL3_RANDOM_DATA, ptr %157, i32 0, i32 3
  store i64 0, ptr %158, align 8
  %159 = load ptr, ptr %9, align 8
  store ptr null, ptr %159, align 8
  %160 = load ptr, ptr %10, align 8
  %161 = getelementptr inbounds %struct.CK_SSL3_RANDOM_DATA, ptr %160, i32 0, i32 0
  store ptr null, ptr %161, align 8
  %162 = load ptr, ptr %10, align 8
  %163 = getelementptr inbounds %struct.CK_SSL3_RANDOM_DATA, ptr %162, i32 0, i32 2
  store ptr null, ptr %163, align 8
  br label %164

164:                                              ; preds = %146, %145, %114, %93, %74, %55, %44, %26
  ret void
}