; Function Attrs: nounwind uwtable
define hidden void @masterKeyDeriveParamToCKMasterKeyDeriveParam(ptr noundef %0, ptr noundef %1, ptr noundef %2, ptr nocapture noundef %3, ptr noundef %4) local_unnamed_addr #0 {
  %6 = load ptr, ptr %0, align 8
  %7 = getelementptr inbounds i8, ptr %6, i64 752
  %8 = load ptr, ptr %7, align 8
  %9 = tail call ptr %8(ptr noundef nonnull %0, ptr noundef %2, ptr noundef nonnull @.str.20, ptr noundef nonnull @.str.21) #8
  %10 = icmp eq ptr %9, null
  br i1 %10, label %76, label %11

11:                                               ; preds = %5
  %12 = load ptr, ptr %0, align 8
  %13 = getelementptr inbounds i8, ptr %12, i64 760
  %14 = load ptr, ptr %13, align 8
  %15 = tail call ptr %14(ptr noundef nonnull %0, ptr noundef %1, ptr noundef nonnull %9) #8
  %16 = load ptr, ptr %0, align 8
  %17 = getelementptr inbounds i8, ptr %16, i64 48
  %18 = load ptr, ptr %17, align 8
  %19 = tail call ptr %18(ptr noundef nonnull %0, ptr noundef nonnull @.str.22) #8
  %20 = icmp eq ptr %19, null
  br i1 %20, label %76, label %21

21:                                               ; preds = %11
  %22 = load ptr, ptr %0, align 8
  %23 = getelementptr inbounds i8, ptr %22, i64 752
  %24 = load ptr, ptr %23, align 8
  %25 = tail call ptr %24(ptr noundef nonnull %0, ptr noundef nonnull %19, ptr noundef nonnull @.str.23, ptr noundef nonnull @.str.24) #8
  %26 = icmp eq ptr %25, null
  br i1 %26, label %76, label %27

27:                                               ; preds = %21
  %28 = load ptr, ptr %0, align 8
  %29 = getelementptr inbounds i8, ptr %28, i64 760
  %30 = load ptr, ptr %29, align 8
  %31 = tail call ptr %30(ptr noundef nonnull %0, ptr noundef %15, ptr noundef nonnull %25) #8
  %32 = load ptr, ptr %0, align 8
  %33 = getelementptr inbounds i8, ptr %32, i64 752
  %34 = load ptr, ptr %33, align 8
  %35 = tail call ptr %34(ptr noundef nonnull %0, ptr noundef nonnull %19, ptr noundef nonnull @.str.25, ptr noundef nonnull @.str.24) #8
  %36 = icmp eq ptr %35, null
  br i1 %36, label %76, label %37

37:                                               ; preds = %27
  %38 = load ptr, ptr %0, align 8
  %39 = getelementptr inbounds i8, ptr %38, i64 760
  %40 = load ptr, ptr %39, align 8
  %41 = tail call ptr %40(ptr noundef nonnull %0, ptr noundef %15, ptr noundef nonnull %35) #8
  %42 = load ptr, ptr %0, align 8
  %43 = getelementptr inbounds i8, ptr %42, i64 752
  %44 = load ptr, ptr %43, align 8
  %45 = tail call ptr %44(ptr noundef nonnull %0, ptr noundef %2, ptr noundef nonnull @.str.26, ptr noundef nonnull @.str.27) #8
  %46 = icmp eq ptr %45, null
  br i1 %46, label %76, label %47

47:                                               ; preds = %37
  %48 = load ptr, ptr %0, align 8
  %49 = getelementptr inbounds i8, ptr %48, i64 760
  %50 = load ptr, ptr %49, align 8
  %51 = tail call ptr %50(ptr noundef nonnull %0, ptr noundef %1, ptr noundef nonnull %45) #8
  %52 = tail call ptr @jVersionToCKVersionPtr(ptr noundef nonnull %0, ptr noundef %51)
  store ptr %52, ptr %3, align 8
  %53 = load ptr, ptr %0, align 8
  %54 = getelementptr inbounds i8, ptr %53, i64 1824
  %55 = load ptr, ptr %54, align 8
  %56 = tail call zeroext i8 %55(ptr noundef nonnull %0) #8
  %.not = icmp eq i8 %56, 0
  br i1 %.not, label %57, label %76

57:                                               ; preds = %47
  %58 = getelementptr inbounds i8, ptr %4, i64 8
  tail call void @jByteArrayToCKByteArray(ptr noundef nonnull %0, ptr noundef %31, ptr noundef %4, ptr noundef nonnull %58) #8
  %59 = load ptr, ptr %0, align 8
  %60 = getelementptr inbounds i8, ptr %59, i64 1824
  %61 = load ptr, ptr %60, align 8
  %62 = tail call zeroext i8 %61(ptr noundef nonnull %0) #8
  %.not64 = icmp eq i8 %62, 0
  br i1 %.not64, label %63, label %70

63:                                               ; preds = %57
  %64 = getelementptr inbounds i8, ptr %4, i64 16
  %65 = getelementptr inbounds i8, ptr %4, i64 24
  tail call void @jByteArrayToCKByteArray(ptr noundef nonnull %0, ptr noundef %41, ptr noundef nonnull %64, ptr noundef nonnull %65) #8
  %66 = load ptr, ptr %0, align 8
  %67 = getelementptr inbounds i8, ptr %66, i64 1824
  %68 = load ptr, ptr %67, align 8
  %69 = tail call zeroext i8 %68(ptr noundef nonnull %0) #8
  %.not65 = icmp eq i8 %69, 0
  br i1 %.not65, label %76, label %70

70:                                               ; preds = %63, %57
  %71 = load ptr, ptr %3, align 8
  tail call void @free(ptr noundef %71) #8
  %72 = load ptr, ptr %4, align 8
  tail call void @free(ptr noundef %72) #8
  store i64 0, ptr %58, align 8
  %73 = getelementptr inbounds i8, ptr %4, i64 16
  %74 = load ptr, ptr %73, align 8
  tail call void @free(ptr noundef %74) #8
  %75 = getelementptr inbounds i8, ptr %4, i64 24
  store i64 0, ptr %75, align 8
  store ptr null, ptr %3, align 8
  store ptr null, ptr %4, align 8
  store ptr null, ptr %73, align 8
  br label %76

76:                                               ; preds = %63, %47, %37, %27, %21, %11, %5, %70
  ret void
}